target datalayout = "e-m:e-p270:32:32-p271:32:32-p272:64:64-i64:64-i128:128-f80:128-n8:16:32:64-S128"
target triple = "x86_64-pc-linux-gnu"

%"class.ade::ExecutionEngine" = type { %"class.std::vector", %"struct.ade::ExecutionEngine::CallbackList", %"struct.ade::ExecutionEngine::CallbackList", %"struct.ade::ExecutionEngine::LazyPasses", %"class.std::unordered_set", %"class.ade::PassManager" }
%"class.std::vector" = type { %"struct.std::_Vector_base" }
%"struct.std::_Vector_base" = type { %"struct.std::_Vector_base<std::unique_ptr<ade::ExecutionBackend>, std::allocator<std::unique_ptr<ade::ExecutionBackend>>>::_Vector_impl" }
%"struct.std::_Vector_base<std::unique_ptr<ade::ExecutionBackend>, std::allocator<std::unique_ptr<ade::ExecutionBackend>>>::_Vector_impl" = type { %"struct.std::_Vector_base<std::unique_ptr<ade::ExecutionBackend>, std::allocator<std::unique_ptr<ade::ExecutionBackend>>>::_Vector_impl_data" }
%"struct.std::_Vector_base<std::unique_ptr<ade::ExecutionBackend>, std::allocator<std::unique_ptr<ade::ExecutionBackend>>>::_Vector_impl_data" = type { ptr, ptr, ptr }
%"struct.ade::ExecutionEngine::CallbackList" = type { %"class.std::vector.0" }
%"class.std::vector.0" = type { %"struct.std::_Vector_base.1" }
%"struct.std::_Vector_base.1" = type { %"struct.std::_Vector_base<std::function<void (const ade::ExecutionEngine::PassDesc &, const ade::passes::PassContext &)>, std::allocator<std::function<void (const ade::ExecutionEngine::PassDesc &, const ade::passes::PassContext &)>>>::_Vector_impl" }
%"struct.std::_Vector_base<std::function<void (const ade::ExecutionEngine::PassDesc &, const ade::passes::PassContext &)>, std::allocator<std::function<void (const ade::ExecutionEngine::PassDesc &, const ade::passes::PassContext &)>>>::_Vector_impl" = type { %"struct.std::_Vector_base<std::function<void (const ade::ExecutionEngine::PassDesc &, const ade::passes::PassContext &)>, std::allocator<std::function<void (const ade::ExecutionEngine::PassDesc &, const ade::passes::PassContext &)>>>::_Vector_impl_data" }
%"struct.std::_Vector_base<std::function<void (const ade::ExecutionEngine::PassDesc &, const ade::passes::PassContext &)>, std::allocator<std::function<void (const ade::ExecutionEngine::PassDesc &, const ade::passes::PassContext &)>>>::_Vector_impl_data" = type { ptr, ptr, ptr }
%"struct.ade::ExecutionEngine::LazyPasses" = type { ptr, %"class.std::unordered_map" }
%"class.std::unordered_map" = type { %"class.std::_Hashtable" }
%"class.std::_Hashtable" = type { ptr, i64, %"struct.std::__detail::_Hash_node_base", i64, %"struct.std::__detail::_Prime_rehash_policy", ptr }
%"struct.std::__detail::_Hash_node_base" = type { ptr }
%"struct.std::__detail::_Prime_rehash_policy" = type { float, i64 }
%"class.std::unordered_set" = type { %"class.std::_Hashtable.10" }
%"class.std::_Hashtable.10" = type { ptr, i64, %"struct.std::__detail::_Hash_node_base", i64, %"struct.std::__detail::_Prime_rehash_policy", ptr }
%"class.ade::PassManager" = type { %"class.std::__cxx11::list", %"class.std::unordered_map.26" }
%"class.std::__cxx11::list" = type { %"class.std::__cxx11::_List_base" }
%"class.std::__cxx11::_List_base" = type { %"struct.std::__cxx11::_List_base<std::pair<std::__cxx11::basic_string<char>, ade::PassList<ade::passes::PassContext>>, std::allocator<std::pair<std::__cxx11::basic_string<char>, ade::PassList<ade::passes::PassContext>>>>::_List_impl" }
%"struct.std::__cxx11::_List_base<std::pair<std::__cxx11::basic_string<char>, ade::PassList<ade::passes::PassContext>>, std::allocator<std::pair<std::__cxx11::basic_string<char>, ade::PassList<ade::passes::PassContext>>>>::_List_impl" = type { %"struct.std::__detail::_List_node_header" }
%"struct.std::__detail::_List_node_header" = type { %"struct.std::__detail::_List_node_base", i64 }
%"struct.std::__detail::_List_node_base" = type { ptr, ptr }
%"class.std::unordered_map.26" = type { %"class.std::_Hashtable.27" }
%"class.std::_Hashtable.27" = type { ptr, i64, %"struct.std::__detail::_Hash_node_base", i64, %"struct.std::__detail::_Prime_rehash_policy", ptr }
%"class.__gnu_cxx::__normal_iterator.172" = type { ptr }
%"class.std::function" = type { %"class.std::_Function_base", ptr }
%"class.std::_Function_base" = type { %"union.std::_Any_data", ptr }
%"union.std::_Any_data" = type { %"union.std::_Nocopy_types" }
%"union.std::_Nocopy_types" = type { { i64, i64 } }
%"class.ade::ExecutionEngineSetupContext" = type { ptr }

; Function Attrs: mustprogress nounwind uwtable
define linkonce_odr hidden void @_ZN9__gnu_cxx17__normal_iteratorIPSt8functionIFvRKN3ade15ExecutionEngine8PassDescERKNS2_6passes11PassContextEEESt6vectorISC_SaISC_EEEC2ERKSD_(ptr noundef nonnull align 8 dereferenceable(8) %0, ptr noundef nonnull align 8 dereferenceable(8) %1) unnamed_addr #1 comdat align 2 {
  %3 = alloca ptr, align 8
  %4 = alloca ptr, align 8
  store ptr %0, ptr %3, align 8, !tbaa !432
  store ptr %1, ptr %4, align 8, !tbaa !434
  %5 = load ptr, ptr %3, align 8
  %6 = getelementptr inbounds nuw %"class.__gnu_cxx::__normal_iterator.172", ptr %5, i32 0, i32 0
  %7 = load ptr, ptr %4, align 8, !tbaa !434
  %8 = load ptr, ptr %7, align 8, !tbaa !39
  store ptr %8, ptr %6, align 8, !tbaa !436
  ret void
}

; Function Attrs: mustprogress nounwind uwtable
define linkonce_odr hidden void @_ZNSt15__new_allocatorISt8functionIFvRKN3ade15ExecutionEngine8PassDescERKNS1_6passes11PassContextEEEE9constructISB_JSB_EEEvPT_DpOT0_(ptr noundef nonnull align 1 dereferenceable(1) %0, ptr noundef %1, ptr noundef nonnull align 8 dereferenceable(32) %2) #1 comdat align 2 {
  %4 = alloca ptr, align 8
  %5 = alloca ptr, align 8
  %6 = alloca ptr, align 8
  store ptr %0, ptr %4, align 8, !tbaa !177
  store ptr %1, ptr %5, align 8, !tbaa !39
  store ptr %2, ptr %6, align 8, !tbaa !39
  %7 = load ptr, ptr %5, align 8, !tbaa !39
  %8 = load ptr, ptr %6, align 8, !tbaa !39
  call void @_ZNSt8functionIFvRKN3ade15ExecutionEngine8PassDescERKNS0_6passes11PassContextEEEC2EOSA_(ptr noundef nonnull align 8 dereferenceable(32) %7, ptr noundef nonnull align 8 dereferenceable(32) %8) #16
  ret void
}

; Function Attrs: mustprogress nounwind uwtable
define linkonce_odr hidden ptr @_ZNSt6vectorISt8functionIFvRKN3ade15ExecutionEngine8PassDescERKNS1_6passes11PassContextEEESaISB_EE3endEv(ptr noundef nonnull align 8 dereferenceable(24) %0) #1 comdat align 2 {
  %2 = alloca %"class.__gnu_cxx::__normal_iterator.172", align 8
  %3 = alloca ptr, align 8
  store ptr %0, ptr %3, align 8, !tbaa !43
  %4 = load ptr, ptr %3, align 8
  %5 = getelementptr inbounds nuw %"struct.std::_Vector_base.1", ptr %4, i32 0, i32 0
  %6 = getelementptr inbounds nuw %"struct.std::_Vector_base<std::function<void (const ade::ExecutionEngine::PassDesc &, const ade::passes::PassContext &)>, std::allocator<std::function<void (const ade::ExecutionEngine::PassDesc &, const ade::passes::PassContext &)>>>::_Vector_impl_data", ptr %5, i32 0, i32 1
  call void @_ZN9__gnu_cxx17__normal_iteratorIPSt8functionIFvRKN3ade15ExecutionEngine8PassDescERKNS2_6passes11PassContextEEESt6vectorISC_SaISC_EEEC2ERKSD_(ptr noundef nonnull align 8 dereferenceable(8) %2, ptr noundef nonnull align 8 dereferenceable(8) %6) #16
  %7 = getelementptr inbounds nuw %"class.__gnu_cxx::__normal_iterator.172", ptr %2, i32 0, i32 0
  %8 = load ptr, ptr %7, align 8
  ret ptr %8
}

; Function Attrs: mustprogress nounwind uwtable
define linkonce_odr hidden void @_ZNSt16allocator_traitsISaISt8functionIFvRKN3ade15ExecutionEngine8PassDescERKNS1_6passes11PassContextEEEEE9constructISB_JSB_EEEvRSC_PT_DpOT0_(ptr noundef nonnull align 1 dereferenceable(1) %0, ptr noundef %1, ptr noundef nonnull align 8 dereferenceable(32) %2) #1 comdat align 2 {
  %4 = alloca ptr, align 8
  %5 = alloca ptr, align 8
  %6 = alloca ptr, align 8
  store ptr %0, ptr %4, align 8, !tbaa !172
  store ptr %1, ptr %5, align 8, !tbaa !39
  store ptr %2, ptr %6, align 8, !tbaa !39
  %7 = load ptr, ptr %4, align 8, !tbaa !172
  %8 = load ptr, ptr %5, align 8, !tbaa !39
  %9 = load ptr, ptr %6, align 8, !tbaa !39
  call void @_ZNSt15__new_allocatorISt8functionIFvRKN3ade15ExecutionEngine8PassDescERKNS1_6passes11PassContextEEEE9constructISB_JSB_EEEvPT_DpOT0_(ptr noundef nonnull align 1 dereferenceable(1) %7, ptr noundef %8, ptr noundef nonnull align 8 dereferenceable(32) %9) #16
  ret void
}

; Function Attrs: mustprogress nounwind uwtable
define linkonce_odr hidden noundef zeroext i1 @_ZNKSt14_Function_base8_M_emptyEv(ptr noundef nonnull align 8 dereferenceable(24) %0) #1 comdat align 2 {
  %2 = alloca ptr, align 8
  store ptr %0, ptr %2, align 8, !tbaa !137
  %3 = load ptr, ptr %2, align 8
  %4 = getelementptr inbounds nuw %"class.std::_Function_base", ptr %3, i32 0, i32 1
  %5 = load ptr, ptr %4, align 8, !tbaa !136
  %6 = icmp ne ptr %5, null
  %7 = xor i1 %6, true
  ret i1 %7
}

; Function Attrs: mustprogress uwtable
define linkonce_odr hidden void @_ZNSt6vectorISt8functionIFvRKN3ade15ExecutionEngine8PassDescERKNS1_6passes11PassContextEEESaISB_EE12emplace_backIJSB_EEEvDpOT_(ptr noundef nonnull align 8 dereferenceable(24) %0, ptr noundef nonnull align 8 dereferenceable(32) %1) #0 comdat align 2 {
  %3 = alloca ptr, align 8
  %4 = alloca ptr, align 8
  %5 = alloca %"class.__gnu_cxx::__normal_iterator.172", align 8
  store ptr %0, ptr %3, align 8, !tbaa !43
  store ptr %1, ptr %4, align 8, !tbaa !39
  %6 = load ptr, ptr %3, align 8
  %7 = getelementptr inbounds nuw %"struct.std::_Vector_base.1", ptr %6, i32 0, i32 0
  %8 = getelementptr inbounds nuw %"struct.std::_Vector_base<std::function<void (const ade::ExecutionEngine::PassDesc &, const ade::passes::PassContext &)>, std::allocator<std::function<void (const ade::ExecutionEngine::PassDesc &, const ade::passes::PassContext &)>>>::_Vector_impl_data", ptr %7, i32 0, i32 1
  %9 = load ptr, ptr %8, align 8, !tbaa !45
  %10 = getelementptr inbounds nuw %"struct.std::_Vector_base.1", ptr %6, i32 0, i32 0
  %11 = getelementptr inbounds nuw %"struct.std::_Vector_base<std::function<void (const ade::ExecutionEngine::PassDesc &, const ade::passes::PassContext &)>, std::allocator<std::function<void (const ade::ExecutionEngine::PassDesc &, const ade::passes::PassContext &)>>>::_Vector_impl_data", ptr %10, i32 0, i32 2
  %12 = load ptr, ptr %11, align 8, !tbaa !47
  %13 = icmp ne ptr %9, %12
  br i1 %13, label %14, label %24

14:                                               ; preds = %2
  %15 = getelementptr inbounds nuw %"struct.std::_Vector_base.1", ptr %6, i32 0, i32 0
  %16 = getelementptr inbounds nuw %"struct.std::_Vector_base.1", ptr %6, i32 0, i32 0
  %17 = getelementptr inbounds nuw %"struct.std::_Vector_base<std::function<void (const ade::ExecutionEngine::PassDesc &, const ade::passes::PassContext &)>, std::allocator<std::function<void (const ade::ExecutionEngine::PassDesc &, const ade::passes::PassContext &)>>>::_Vector_impl_data", ptr %16, i32 0, i32 1
  %18 = load ptr, ptr %17, align 8, !tbaa !45
  %19 = load ptr, ptr %4, align 8, !tbaa !39
  call void @_ZNSt16allocator_traitsISaISt8functionIFvRKN3ade15ExecutionEngine8PassDescERKNS1_6passes11PassContextEEEEE9constructISB_JSB_EEEvRSC_PT_DpOT0_(ptr noundef nonnull align 1 dereferenceable(1) %15, ptr noundef %18, ptr noundef nonnull align 8 dereferenceable(32) %19) #16
  %20 = getelementptr inbounds nuw %"struct.std::_Vector_base.1", ptr %6, i32 0, i32 0
  %21 = getelementptr inbounds nuw %"struct.std::_Vector_base<std::function<void (const ade::ExecutionEngine::PassDesc &, const ade::passes::PassContext &)>, std::allocator<std::function<void (const ade::ExecutionEngine::PassDesc &, const ade::passes::PassContext &)>>>::_Vector_impl_data", ptr %20, i32 0, i32 1
  %22 = load ptr, ptr %21, align 8, !tbaa !45
  %23 = getelementptr inbounds nuw %"class.std::function", ptr %22, i32 1
  store ptr %23, ptr %21, align 8, !tbaa !45
  br label %30

24:                                               ; preds = %2
  %25 = call ptr @_ZNSt6vectorISt8functionIFvRKN3ade15ExecutionEngine8PassDescERKNS1_6passes11PassContextEEESaISB_EE3endEv(ptr noundef nonnull align 8 dereferenceable(24) %6) #16
  %26 = getelementptr inbounds nuw %"class.__gnu_cxx::__normal_iterator.172", ptr %5, i32 0, i32 0
  store ptr %25, ptr %26, align 8
  %27 = load ptr, ptr %4, align 8, !tbaa !39
  %28 = getelementptr inbounds nuw %"class.__gnu_cxx::__normal_iterator.172", ptr %5, i32 0, i32 0
  %29 = load ptr, ptr %28, align 8
  call void @_ZNSt6vectorISt8functionIFvRKN3ade15ExecutionEngine8PassDescERKNS1_6passes11PassContextEEESaISB_EE17_M_realloc_insertIJSB_EEEvN9__gnu_cxx17__normal_iteratorIPSB_SD_EEDpOT_(ptr noundef nonnull align 8 dereferenceable(24) %6, ptr %29, ptr noundef nonnull align 8 dereferenceable(32) %27)
  br label %30

30:                                               ; preds = %24, %14
  ret void
}

; Function Attrs: mustprogress nounwind uwtable
define linkonce_odr hidden noundef zeroext i1 @_ZNKSt8functionIFvRKN3ade15ExecutionEngine8PassDescERKNS0_6passes11PassContextEEEcvbEv(ptr noundef nonnull align 8 dereferenceable(32) %0) #1 comdat align 2 personality ptr @__gxx_personality_v0 {
  %2 = alloca ptr, align 8
  store ptr %0, ptr %2, align 8, !tbaa !39
  %3 = load ptr, ptr %2, align 8
  %4 = invoke noundef zeroext i1 @_ZNKSt14_Function_base8_M_emptyEv(ptr noundef nonnull align 8 dereferenceable(24) %3)
          to label %5 unwind label %7

5:                                                ; preds = %1
  %6 = xor i1 %4, true
  ret i1 %6

7:                                                ; preds = %1
  %8 = landingpad { ptr, i32 }
          catch ptr null
  %9 = extractvalue { ptr, i32 } %8, 0
  call void @__clang_call_terminate(ptr %9) #17
  unreachable
}

; Function Attrs: mustprogress nounwind uwtable
define linkonce_odr hidden void @_ZNSt14_Function_baseC2Ev(ptr noundef nonnull align 8 dereferenceable(24) %0) unnamed_addr #1 comdat align 2 {
  %2 = alloca ptr, align 8
  store ptr %0, ptr %2, align 8, !tbaa !137
  %3 = load ptr, ptr %2, align 8
  %4 = getelementptr inbounds nuw %"class.std::_Function_base", ptr %3, i32 0, i32 0
  store ptr null, ptr %4, align 8, !tbaa !135
  %5 = getelementptr inbounds nuw %"class.std::_Function_base", ptr %3, i32 0, i32 1
  store ptr null, ptr %5, align 8, !tbaa !136
  ret void
}

; Function Attrs: mustprogress nounwind uwtable
define linkonce_odr hidden void @_ZNSt14_Function_baseD2Ev(ptr noundef nonnull align 8 dereferenceable(24) %0) unnamed_addr #1 comdat align 2 personality ptr @__gxx_personality_v0 {
  %2 = alloca ptr, align 8
  store ptr %0, ptr %2, align 8, !tbaa !137
  %3 = load ptr, ptr %2, align 8
  %4 = getelementptr inbounds nuw %"class.std::_Function_base", ptr %3, i32 0, i32 1
  %5 = load ptr, ptr %4, align 8, !tbaa !136
  %6 = icmp ne ptr %5, null
  br i1 %6, label %7, label %14

7:                                                ; preds = %1
  %8 = getelementptr inbounds nuw %"class.std::_Function_base", ptr %3, i32 0, i32 1
  %9 = load ptr, ptr %8, align 8, !tbaa !136
  %10 = getelementptr inbounds nuw %"class.std::_Function_base", ptr %3, i32 0, i32 0
  %11 = getelementptr inbounds nuw %"class.std::_Function_base", ptr %3, i32 0, i32 0
  %12 = invoke noundef zeroext i1 %9(ptr noundef nonnull align 8 dereferenceable(16) %10, ptr noundef nonnull align 8 dereferenceable(16) %11, i32 noundef 3)
          to label %13 unwind label %15

13:                                               ; preds = %7
  br label %14

14:                                               ; preds = %13, %1
  ret void

15:                                               ; preds = %7
  %16 = landingpad { ptr, i32 }
          catch ptr null
  %17 = extractvalue { ptr, i32 } %16, 0
  call void @__clang_call_terminate(ptr %17) #17
  unreachable
}

; Function Attrs: mustprogress uwtable
define hidden void @_ZN3ade15ExecutionEngine19addPostPassCallbackESt8functionIFvRKNS0_8PassDescERKNS_6passes11PassContextEEE(ptr noundef nonnull align 8 dereferenceable(272) %0, ptr noundef %1) #0 align 2 {
  %3 = alloca ptr, align 8
  %4 = alloca ptr, align 8
  %5 = alloca i8, align 1
  store ptr %0, ptr %3, align 8, !tbaa !11
  store ptr %1, ptr %4, align 8, !tbaa !39
  %6 = load ptr, ptr %3, align 8
  br label %7

7:                                                ; preds = %2
  call void @llvm.lifetime.start.p0(i64 1, ptr %5) #16
  store i8 0, ptr %5, align 1, !tbaa !41
  call void @llvm.lifetime.end.p0(i64 1, ptr %5) #16
  br label %8

8:                                                ; preds = %7
  %9 = getelementptr inbounds nuw %"class.ade::ExecutionEngine", ptr %6, i32 0, i32 2
  %10 = getelementptr inbounds nuw %"struct.ade::ExecutionEngine::CallbackList", ptr %9, i32 0, i32 0
  call void @_ZNSt6vectorISt8functionIFvRKN3ade15ExecutionEngine8PassDescERKNS1_6passes11PassContextEEESaISB_EE12emplace_backIJSB_EEEvDpOT_(ptr noundef nonnull align 8 dereferenceable(24) %10, ptr noundef nonnull align 8 dereferenceable(32) %1)
  ret void
}

; Function Attrs: mustprogress nounwind uwtable
define linkonce_odr hidden void @_ZNSt8functionIFvRKN3ade15ExecutionEngine8PassDescERKNS0_6passes11PassContextEEEC2EOSA_(ptr noundef nonnull align 8 dereferenceable(32) %0, ptr noundef nonnull align 8 dereferenceable(32) %1) unnamed_addr #1 comdat align 2 {
  %3 = alloca ptr, align 8
  %4 = alloca ptr, align 8
  store ptr %0, ptr %3, align 8, !tbaa !39
  store ptr %1, ptr %4, align 8, !tbaa !39
  %5 = load ptr, ptr %3, align 8
  %6 = getelementptr inbounds i8, ptr %5, i64 0
  call void @llvm.memset.p0.i64(ptr align 8 %6, i8 0, i64 24, i1 false)
  call void @_ZNSt14_Function_baseC2Ev(ptr noundef nonnull align 8 dereferenceable(24) %5) #16
  %7 = getelementptr inbounds nuw %"class.std::function", ptr %5, i32 0, i32 1
  %8 = load ptr, ptr %4, align 8, !tbaa !39
  %9 = getelementptr inbounds nuw %"class.std::function", ptr %8, i32 0, i32 1
  %10 = load ptr, ptr %9, align 8, !tbaa !131
  store ptr %10, ptr %7, align 8, !tbaa !131
  %11 = load ptr, ptr %4, align 8, !tbaa !39
  %12 = call noundef zeroext i1 @_ZNKSt8functionIFvRKN3ade15ExecutionEngine8PassDescERKNS0_6passes11PassContextEEEcvbEv(ptr noundef nonnull align 8 dereferenceable(32) %11) #16
  br i1 %12, label %13, label %25

13:                                               ; preds = %2
  %14 = load ptr, ptr %4, align 8, !tbaa !39
  %15 = getelementptr inbounds nuw %"class.std::_Function_base", ptr %14, i32 0, i32 0
  %16 = getelementptr inbounds nuw %"class.std::_Function_base", ptr %5, i32 0, i32 0
  call void @llvm.memcpy.p0.p0.i64(ptr align 8 %16, ptr align 8 %15, i64 16, i1 false), !tbaa.struct !134
  %17 = load ptr, ptr %4, align 8, !tbaa !39
  %18 = getelementptr inbounds nuw %"class.std::_Function_base", ptr %17, i32 0, i32 1
  %19 = load ptr, ptr %18, align 8, !tbaa !136
  %20 = getelementptr inbounds nuw %"class.std::_Function_base", ptr %5, i32 0, i32 1
  store ptr %19, ptr %20, align 8, !tbaa !136
  %21 = load ptr, ptr %4, align 8, !tbaa !39
  %22 = getelementptr inbounds nuw %"class.std::_Function_base", ptr %21, i32 0, i32 1
  store ptr null, ptr %22, align 8, !tbaa !136
  %23 = load ptr, ptr %4, align 8, !tbaa !39
  %24 = getelementptr inbounds nuw %"class.std::function", ptr %23, i32 0, i32 1
  store ptr null, ptr %24, align 8, !tbaa !131
  br label %25

25:                                               ; preds = %13, %2
  ret void
}

; Function Attrs: mustprogress uwtable
define hidden void @_ZN3ade27ExecutionEngineSetupContext19addPostPassCallbackESt8functionIFvRKNS_15ExecutionEngine8PassDescERKNS_6passes11PassContextEEE(ptr noundef nonnull align 8 dereferenceable(8) %0, ptr noundef %1) #0 align 2 personality ptr @__gxx_personality_v0 {
  %3 = alloca ptr, align 8
  %4 = alloca ptr, align 8
  %5 = alloca %"class.std::function", align 8
  %6 = alloca ptr, align 8
  %7 = alloca i32, align 4
  store ptr %0, ptr %3, align 8, !tbaa !127
  store ptr %1, ptr %4, align 8, !tbaa !39
  %8 = load ptr, ptr %3, align 8
  %9 = getelementptr inbounds nuw %"class.ade::ExecutionEngineSetupContext", ptr %8, i32 0, i32 0
  %10 = load ptr, ptr %9, align 8, !tbaa !129
  call void @_ZNSt8functionIFvRKN3ade15ExecutionEngine8PassDescERKNS0_6passes11PassContextEEEC2EOSA_(ptr noundef nonnull align 8 dereferenceable(32) %5, ptr noundef nonnull align 8 dereferenceable(32) %1) #16
  invoke void @_ZN3ade15ExecutionEngine19addPostPassCallbackESt8functionIFvRKNS0_8PassDescERKNS_6passes11PassContextEEE(ptr noundef nonnull align 8 dereferenceable(272) %10, ptr noundef %5)
          to label %11 unwind label %12

11:                                               ; preds = %2
  call void @_ZNSt14_Function_baseD2Ev(ptr noundef nonnull align 8 dereferenceable(32) %5) #16
  ret void

12:                                               ; preds = %2
  %13 = landingpad { ptr, i32 }
          cleanup
  %14 = extractvalue { ptr, i32 } %13, 0
  store ptr %14, ptr %6, align 8
  %15 = extractvalue { ptr, i32 } %13, 1
  store i32 %15, ptr %7, align 4
  call void @_ZNSt14_Function_baseD2Ev(ptr noundef nonnull align 8 dereferenceable(32) %5) #16
  br label %16

16:                                               ; preds = %12
  %17 = load ptr, ptr %6, align 8
  %18 = load i32, ptr %7, align 4
  %19 = insertvalue { ptr, i32 } poison, ptr %17, 0
  %20 = insertvalue { ptr, i32 } %19, i32 %18, 1
  resume { ptr, i32 } %20
}